Certificate:
    Data:
        Version: 3 (0x2)
        Serial Number: 4 (0x4)
        Signature Algorithm: sha1WithRSAEncryption
        Issuer: C=US, ST=California, L=Mountain View, O=enLighted Inc, CN=www.enlightedcloud.net/emailAddress=support@enlightedcloud.net/subjectAltName=DNS:www.enlightedcloud.net
        Validity
            Not Before: Mar 25 07:17:05 2013 GMT
            Not After : Mar 25 07:17:05 2014 GMT
        Subject: C=US, ST=California, O=enLighted Inc, CN=us-tx-r-p-6854f5fff88e.enlightedcloud.net/emailAddress=support@enlightedcloud.net
        Subject Public Key Info:
            Public Key Algorithm: rsaEncryption
            RSA Public Key: (1024 bit)
                Modulus (1024 bit):
                    00:d5:7f:9f:df:a1:74:e8:5c:89:4c:b7:90:16:f1:
                    71:60:be:be:43:d7:ad:07:36:4d:da:cf:82:2d:a7:
                    c0:14:9f:7a:32:15:e4:cc:b7:dd:d8:ba:d1:5d:2a:
                    69:5c:d6:d1:24:5d:95:6a:ce:6c:c6:7b:a1:9f:0d:
                    0c:63:2e:08:da:af:eb:70:2b:47:77:6d:8c:2a:3f:
                    fd:79:40:a6:ab:32:41:d3:4e:f0:ec:4f:c5:fe:14:
                    ad:51:21:7f:08:60:d6:e3:79:d2:0a:a9:cd:77:b9:
                    56:da:81:36:ec:c3:b1:92:1e:2a:35:5a:3c:e5:5b:
                    aa:fd:ea:da:71:ea:b5:1f:95
                Exponent: 65537 (0x10001)
        X509v3 extensions:
            X509v3 Basic Constraints: 
                CA:FALSE
            Netscape Comment: 
                OpenSSL Generated Certificate
            X509v3 Subject Key Identifier: 
                56:60:34:53:83:5E:28:61:D7:A3:26:88:9D:A2:44:39:AB:70:5E:11
            X509v3 Authority Key Identifier: 
                keyid:13:4E:C6:06:74:D7:1E:06:2F:27:97:7D:28:B1:3F:9F:62:B7:15:FF

    Signature Algorithm: sha1WithRSAEncryption
        4f:cc:8e:63:f1:c8:f3:c2:d3:35:22:a4:f9:72:b2:33:d6:05:
        15:24:97:61:7d:18:92:ed:b1:ef:55:37:f5:e1:41:2e:c2:96:
        6d:a2:e8:d4:bc:f3:43:05:c3:70:61:8c:b0:43:b0:b0:b6:73:
        c0:f8:cc:2a:1b:84:ca:02:ad:4b:62:ce:82:a3:36:61:14:fe:
        e5:71:e4:96:b2:a3:df:e5:db:36:ed:99:2f:45:00:68:28:0b:
        e8:46:8e:d9:7f:9e:6e:f7:83:3d:a9:04:d9:92:53:d5:6e:ee:
        5f:70:08:4b:ca:dd:48:2e:b9:74:b2:b4:70:1d:cb:06:83:f1:
        c6:19
-----BEGIN CERTIFICATE-----
MIIDTzCCArigAwIBAgIBBDANBgkqhkiG9w0BAQUFADCBwzELMAkGA1UEBhMCVVMx
EzARBgNVBAgTCkNhbGlmb3JuaWExFjAUBgNVBAcTDU1vdW50YWluIFZpZXcxFjAU
BgNVBAoTDWVuTGlnaHRlZCBJbmMxHzAdBgNVBAMTFnd3dy5lbmxpZ2h0ZWRjbG91
ZC5uZXQxKTAnBgkqhkiG9w0BCQEWGnN1cHBvcnRAZW5saWdodGVkY2xvdWQubmV0
MSMwIQYDVR0RExpETlM6d3d3LmVubGlnaHRlZGNsb3VkLm5ldDAeFw0xMzAzMjUw
NzE3MDVaFw0xNDAzMjUwNzE3MDVaMIGZMQswCQYDVQQGEwJVUzETMBEGA1UECBMK
Q2FsaWZvcm5pYTEWMBQGA1UEChMNZW5MaWdodGVkIEluYzEyMDAGA1UEAxMpdXMt
dHgtci1wLTY4NTRmNWZmZjg4ZS5lbmxpZ2h0ZWRjbG91ZC5uZXQxKTAnBgkqhkiG
9w0BCQEWGnN1cHBvcnRAZW5saWdodGVkY2xvdWQubmV0MIGfMA0GCSqGSIb3DQEB
AQUAA4GNADCBiQKBgQDVf5/foXToXIlMt5AW8XFgvr5D160HNk3az4Itp8AUn3oy
FeTMt93YutFdKmlc1tEkXZVqzmzGe6GfDQxjLgjar+twK0d3bYwqP/15QKarMkHT
TvDsT8X+FK1RIX8IYNbjedIKqc13uVbagTbsw7GSHio1WjzlW6r96tpx6rUflQID
AQABo3sweTAJBgNVHRMEAjAAMCwGCWCGSAGG+EIBDQQfFh1PcGVuU1NMIEdlbmVy
YXRlZCBDZXJ0aWZpY2F0ZTAdBgNVHQ4EFgQUVmA0U4NeKGHXoyaInaJEOatwXhEw
HwYDVR0jBBgwFoAUE07GBnTXHgYvJ5d9KLE/n2K3Ff8wDQYJKoZIhvcNAQEFBQAD
gYEAT8yOY/HI88LTNSKk+XKyM9YFFSSXYX0Yku2x71U39eFBLsKWbaLo1LzzQwXD
cGGMsEOwsLZzwPjMKhuEygKtS2LOgqM2YRT+5XHklrKj3+XbNu2ZL0UAaCgL6EaO
2X+ebveDPakE2ZJT1W7uX3AIS8rdSC65dLK0cB3LBoPxxhk=
-----END CERTIFICATE-----
