Certificate:
    Data:
        Version: 3 (0x2)
        Serial Number: 2 (0x2)
        Signature Algorithm: sha1WithRSAEncryption
        Issuer: C=US, ST=California, L=Mountain View, O=enLighted Inc, CN=www.enlightedcloud.net/emailAddress=support@enlightedcloud.net/subjectAltName=DNS:www.enlightedcloud.net
        Validity
            Not Before: Feb 28 18:59:43 2013 GMT
            Not After : Feb 28 18:59:43 2014 GMT
        Subject: C=US, ST=California, O=enLighted Inc, CN=us-tx-r-p-6854f5fff88e.enlightedcloud.net/emailAddress=support@enlightedcloud.net
        Subject Public Key Info:
            Public Key Algorithm: rsaEncryption
            RSA Public Key: (1024 bit)
                Modulus (1024 bit):
                    00:d5:7f:9f:df:a1:74:e8:5c:89:4c:b7:90:16:f1:
                    71:60:be:be:43:d7:ad:07:36:4d:da:cf:82:2d:a7:
                    c0:14:9f:7a:32:15:e4:cc:b7:dd:d8:ba:d1:5d:2a:
                    69:5c:d6:d1:24:5d:95:6a:ce:6c:c6:7b:a1:9f:0d:
                    0c:63:2e:08:da:af:eb:70:2b:47:77:6d:8c:2a:3f:
                    fd:79:40:a6:ab:32:41:d3:4e:f0:ec:4f:c5:fe:14:
                    ad:51:21:7f:08:60:d6:e3:79:d2:0a:a9:cd:77:b9:
                    56:da:81:36:ec:c3:b1:92:1e:2a:35:5a:3c:e5:5b:
                    aa:fd:ea:da:71:ea:b5:1f:95
                Exponent: 65537 (0x10001)
        X509v3 extensions:
            X509v3 Basic Constraints: 
                CA:FALSE
            Netscape Comment: 
                OpenSSL Generated Certificate
            X509v3 Subject Key Identifier: 
                56:60:34:53:83:5E:28:61:D7:A3:26:88:9D:A2:44:39:AB:70:5E:11
            X509v3 Authority Key Identifier: 
                keyid:FE:42:1E:2A:10:D3:48:AE:3A:50:8A:BE:C5:9C:56:A9:93:FC:8E:00

    Signature Algorithm: sha1WithRSAEncryption
        d7:4f:e7:12:ad:11:e2:27:fb:ab:c2:52:dc:8c:fa:57:a9:37:
        12:3f:a1:7b:f1:8b:e7:8b:57:57:47:53:d9:9f:08:19:b2:6a:
        58:8f:4c:5f:b9:5d:90:6d:84:1d:0e:6e:ce:62:1f:7c:1b:c4:
        5e:d8:36:e6:c3:e5:31:f2:78:98:f0:01:73:dc:fa:61:e9:87:
        c7:61:c0:d9:ef:61:82:0a:ef:0e:cd:04:e7:60:4c:45:34:5a:
        42:c2:13:e0:76:60:8a:5f:59:ad:fa:b9:48:a6:62:d3:e5:88:
        f2:01:f3:8a:0d:10:1c:55:d8:24:29:65:b2:12:8c:e2:e0:1d:
        a3:04
-----BEGIN CERTIFICATE-----
MIIDTzCCArigAwIBAgIBAjANBgkqhkiG9w0BAQUFADCBwzELMAkGA1UEBhMCVVMx
EzARBgNVBAgTCkNhbGlmb3JuaWExFjAUBgNVBAcTDU1vdW50YWluIFZpZXcxFjAU
BgNVBAoTDWVuTGlnaHRlZCBJbmMxHzAdBgNVBAMTFnd3dy5lbmxpZ2h0ZWRjbG91
ZC5uZXQxKTAnBgkqhkiG9w0BCQEWGnN1cHBvcnRAZW5saWdodGVkY2xvdWQubmV0
MSMwIQYDVR0RExpETlM6d3d3LmVubGlnaHRlZGNsb3VkLm5ldDAeFw0xMzAyMjgx
ODU5NDNaFw0xNDAyMjgxODU5NDNaMIGZMQswCQYDVQQGEwJVUzETMBEGA1UECBMK
Q2FsaWZvcm5pYTEWMBQGA1UEChMNZW5MaWdodGVkIEluYzEyMDAGA1UEAxMpdXMt
dHgtci1wLTY4NTRmNWZmZjg4ZS5lbmxpZ2h0ZWRjbG91ZC5uZXQxKTAnBgkqhkiG
9w0BCQEWGnN1cHBvcnRAZW5saWdodGVkY2xvdWQubmV0MIGfMA0GCSqGSIb3DQEB
AQUAA4GNADCBiQKBgQDVf5/foXToXIlMt5AW8XFgvr5D160HNk3az4Itp8AUn3oy
FeTMt93YutFdKmlc1tEkXZVqzmzGe6GfDQxjLgjar+twK0d3bYwqP/15QKarMkHT
TvDsT8X+FK1RIX8IYNbjedIKqc13uVbagTbsw7GSHio1WjzlW6r96tpx6rUflQID
AQABo3sweTAJBgNVHRMEAjAAMCwGCWCGSAGG+EIBDQQfFh1PcGVuU1NMIEdlbmVy
YXRlZCBDZXJ0aWZpY2F0ZTAdBgNVHQ4EFgQUVmA0U4NeKGHXoyaInaJEOatwXhEw
HwYDVR0jBBgwFoAU/kIeKhDTSK46UIq+xZxWqZP8jgAwDQYJKoZIhvcNAQEFBQAD
gYEA10/nEq0R4if7q8JS3Iz6V6k3Ej+he/GL54tXV0dT2Z8IGbJqWI9MX7ldkG2E
HQ5uzmIffBvEXtg25sPlMfJ4mPABc9z6YemHx2HA2e9hggrvDs0E52BMRTRaQsIT
4HZgil9Zrfq5SKZi0+WI8gHzig0QHFXYJCllshKM4uAdowQ=
-----END CERTIFICATE-----
