Certificate:
    Data:
        Version: 3 (0x2)
        Serial Number: 3 (0x3)
        Signature Algorithm: sha1WithRSAEncryption
        Issuer: C=US, ST=California, L=Mountain View, O=enLighted Inc, CN=www.enlightedcloud.net/emailAddress=support@enlightedcloud.net/subjectAltName=DNS:www.enlightedcloud.net
        Validity
            Not Before: Mar 25 07:15:31 2013 GMT
            Not After : Mar 25 07:15:31 2014 GMT
        Subject: C=US, ST=California, O=enLighted Inc, CN=*.enlightedcloud.net/emailAddress=support@enlightedcloud.net
        Subject Public Key Info:
            Public Key Algorithm: rsaEncryption
            RSA Public Key: (1024 bit)
                Modulus (1024 bit):
                    00:ab:b4:f4:92:0d:d4:98:89:fa:e1:bb:7b:6f:bc:
                    9b:5f:40:b5:ee:cd:87:3d:5a:bd:0c:23:80:50:96:
                    5d:73:e9:26:e7:71:21:dc:22:40:d9:48:59:cf:a3:
                    36:73:c9:07:04:d2:87:95:d9:f0:78:b2:4e:ff:26:
                    0e:16:f3:7f:ca:32:82:e5:ed:58:06:a8:5e:58:cc:
                    0b:b2:f6:3d:13:b3:b2:36:01:88:ec:6a:9e:94:45:
                    dc:65:a2:04:23:d2:53:c4:2f:76:56:63:b9:d7:5c:
                    aa:5c:19:9f:fb:a5:03:11:2f:6f:35:09:03:38:2e:
                    5b:28:96:04:2e:66:45:83:29
                Exponent: 65537 (0x10001)
        X509v3 extensions:
            X509v3 Basic Constraints: 
                CA:FALSE
            Netscape Comment: 
                OpenSSL Generated Certificate
            X509v3 Subject Key Identifier: 
                26:71:A7:77:B3:1A:77:D9:BF:C9:22:A5:68:52:E6:9A:A1:66:C3:FB
            X509v3 Authority Key Identifier: 
                keyid:13:4E:C6:06:74:D7:1E:06:2F:27:97:7D:28:B1:3F:9F:62:B7:15:FF

    Signature Algorithm: sha1WithRSAEncryption
        69:f5:55:3d:80:b3:61:0a:fc:32:a6:c8:14:65:49:b9:c0:c0:
        ae:22:ab:85:bc:f5:38:b2:48:15:70:78:c3:41:02:0d:76:78:
        41:f0:24:da:b9:b5:7f:24:7c:ee:70:28:92:a0:46:16:32:ba:
        a0:1d:1e:91:81:8f:02:a4:d4:f7:bd:0c:67:de:6d:1e:ab:7c:
        28:29:29:fb:73:e7:ea:a9:bd:1e:00:77:19:8a:00:bd:75:30:
        f2:d3:76:9f:fc:fa:af:d3:c5:a7:5f:33:7d:06:2b:09:22:7d:
        b2:9c:ec:7b:58:3a:ab:76:71:44:d8:56:ea:89:23:f0:1d:55:
        ce:5f
-----BEGIN CERTIFICATE-----
MIIDOjCCAqOgAwIBAgIBAzANBgkqhkiG9w0BAQUFADCBwzELMAkGA1UEBhMCVVMx
EzARBgNVBAgTCkNhbGlmb3JuaWExFjAUBgNVBAcTDU1vdW50YWluIFZpZXcxFjAU
BgNVBAoTDWVuTGlnaHRlZCBJbmMxHzAdBgNVBAMTFnd3dy5lbmxpZ2h0ZWRjbG91
ZC5uZXQxKTAnBgkqhkiG9w0BCQEWGnN1cHBvcnRAZW5saWdodGVkY2xvdWQubmV0
MSMwIQYDVR0RExpETlM6d3d3LmVubGlnaHRlZGNsb3VkLm5ldDAeFw0xMzAzMjUw
NzE1MzFaFw0xNDAzMjUwNzE1MzFaMIGEMQswCQYDVQQGEwJVUzETMBEGA1UECBMK
Q2FsaWZvcm5pYTEWMBQGA1UEChMNZW5MaWdodGVkIEluYzEdMBsGA1UEAxQUKi5l
bmxpZ2h0ZWRjbG91ZC5uZXQxKTAnBgkqhkiG9w0BCQEWGnN1cHBvcnRAZW5saWdo
dGVkY2xvdWQubmV0MIGfMA0GCSqGSIb3DQEBAQUAA4GNADCBiQKBgQCrtPSSDdSY
ifrhu3tvvJtfQLXuzYc9Wr0MI4BQll1z6SbncSHcIkDZSFnPozZzyQcE0oeV2fB4
sk7/Jg4W83/KMoLl7VgGqF5YzAuy9j0Ts7I2AYjsap6URdxlogQj0lPEL3ZWY7nX
XKpcGZ/7pQMRL281CQM4LlsolgQuZkWDKQIDAQABo3sweTAJBgNVHRMEAjAAMCwG
CWCGSAGG+EIBDQQfFh1PcGVuU1NMIEdlbmVyYXRlZCBDZXJ0aWZpY2F0ZTAdBgNV
HQ4EFgQUJnGnd7Mad9m/ySKlaFLmmqFmw/swHwYDVR0jBBgwFoAUE07GBnTXHgYv
J5d9KLE/n2K3Ff8wDQYJKoZIhvcNAQEFBQADgYEAafVVPYCzYQr8MqbIFGVJucDA
riKrhbz1OLJIFXB4w0ECDXZ4QfAk2rm1fyR87nAokqBGFjK6oB0ekYGPAqTU970M
Z95tHqt8KCkp+3Pn6qm9HgB3GYoAvXUw8tN2n/z6r9PFp18zfQYrCSJ9spzse1g6
q3ZxRNhW6okj8B1Vzl8=
-----END CERTIFICATE-----
