Certificate:
    Data:
        Version: 3 (0x2)
        Serial Number: 1 (0x1)
        Signature Algorithm: sha1WithRSAEncryption
        Issuer: C=US, ST=California, L=Mountain View, O=enLighted Inc, CN=www.enlightedcloud.net/emailAddress=support@enlightedcloud.net/subjectAltName=DNS:www.enlightedcloud.net
        Validity
            Not Before: Feb 28 18:47:21 2013 GMT
            Not After : Feb 28 18:47:21 2014 GMT
        Subject: C=US, ST=California, O=enLighted Inc, CN=*.enlightedcloud.net/emailAddress=support@enlightedcloud.net
        Subject Public Key Info:
            Public Key Algorithm: rsaEncryption
            RSA Public Key: (1024 bit)
                Modulus (1024 bit):
                    00:ab:b4:f4:92:0d:d4:98:89:fa:e1:bb:7b:6f:bc:
                    9b:5f:40:b5:ee:cd:87:3d:5a:bd:0c:23:80:50:96:
                    5d:73:e9:26:e7:71:21:dc:22:40:d9:48:59:cf:a3:
                    36:73:c9:07:04:d2:87:95:d9:f0:78:b2:4e:ff:26:
                    0e:16:f3:7f:ca:32:82:e5:ed:58:06:a8:5e:58:cc:
                    0b:b2:f6:3d:13:b3:b2:36:01:88:ec:6a:9e:94:45:
                    dc:65:a2:04:23:d2:53:c4:2f:76:56:63:b9:d7:5c:
                    aa:5c:19:9f:fb:a5:03:11:2f:6f:35:09:03:38:2e:
                    5b:28:96:04:2e:66:45:83:29
                Exponent: 65537 (0x10001)
        X509v3 extensions:
            X509v3 Basic Constraints: 
                CA:FALSE
            Netscape Comment: 
                OpenSSL Generated Certificate
            X509v3 Subject Key Identifier: 
                26:71:A7:77:B3:1A:77:D9:BF:C9:22:A5:68:52:E6:9A:A1:66:C3:FB
            X509v3 Authority Key Identifier: 
                keyid:FE:42:1E:2A:10:D3:48:AE:3A:50:8A:BE:C5:9C:56:A9:93:FC:8E:00

    Signature Algorithm: sha1WithRSAEncryption
        cf:7b:12:7a:47:a7:45:64:85:93:e0:85:50:33:06:00:50:3b:
        aa:51:19:73:2d:0e:01:5f:d1:d6:e8:d5:8d:66:c4:3a:84:d8:
        64:ab:1c:aa:ee:14:2d:6a:30:40:19:17:47:6a:73:e2:5b:ab:
        0e:4c:31:eb:7e:22:bc:bc:ce:d5:f0:a0:66:a0:e7:dd:d1:7b:
        89:66:12:d1:76:82:04:90:31:73:5a:e9:0e:f3:9f:e2:35:35:
        39:ab:65:5f:85:fc:cd:dc:78:f9:00:81:3c:45:44:ae:cd:19:
        95:12:21:b7:a5:22:37:52:ee:87:c3:e3:cb:89:fc:95:47:9d:
        f6:0d
-----BEGIN CERTIFICATE-----
MIIDOjCCAqOgAwIBAgIBATANBgkqhkiG9w0BAQUFADCBwzELMAkGA1UEBhMCVVMx
EzARBgNVBAgTCkNhbGlmb3JuaWExFjAUBgNVBAcTDU1vdW50YWluIFZpZXcxFjAU
BgNVBAoTDWVuTGlnaHRlZCBJbmMxHzAdBgNVBAMTFnd3dy5lbmxpZ2h0ZWRjbG91
ZC5uZXQxKTAnBgkqhkiG9w0BCQEWGnN1cHBvcnRAZW5saWdodGVkY2xvdWQubmV0
MSMwIQYDVR0RExpETlM6d3d3LmVubGlnaHRlZGNsb3VkLm5ldDAeFw0xMzAyMjgx
ODQ3MjFaFw0xNDAyMjgxODQ3MjFaMIGEMQswCQYDVQQGEwJVUzETMBEGA1UECBMK
Q2FsaWZvcm5pYTEWMBQGA1UEChMNZW5MaWdodGVkIEluYzEdMBsGA1UEAxQUKi5l
bmxpZ2h0ZWRjbG91ZC5uZXQxKTAnBgkqhkiG9w0BCQEWGnN1cHBvcnRAZW5saWdo
dGVkY2xvdWQubmV0MIGfMA0GCSqGSIb3DQEBAQUAA4GNADCBiQKBgQCrtPSSDdSY
ifrhu3tvvJtfQLXuzYc9Wr0MI4BQll1z6SbncSHcIkDZSFnPozZzyQcE0oeV2fB4
sk7/Jg4W83/KMoLl7VgGqF5YzAuy9j0Ts7I2AYjsap6URdxlogQj0lPEL3ZWY7nX
XKpcGZ/7pQMRL281CQM4LlsolgQuZkWDKQIDAQABo3sweTAJBgNVHRMEAjAAMCwG
CWCGSAGG+EIBDQQfFh1PcGVuU1NMIEdlbmVyYXRlZCBDZXJ0aWZpY2F0ZTAdBgNV
HQ4EFgQUJnGnd7Mad9m/ySKlaFLmmqFmw/swHwYDVR0jBBgwFoAU/kIeKhDTSK46
UIq+xZxWqZP8jgAwDQYJKoZIhvcNAQEFBQADgYEAz3sSekenRWSFk+CFUDMGAFA7
qlEZcy0OAV/R1ujVjWbEOoTYZKscqu4ULWowQBkXR2pz4lurDkwx634ivLzO1fCg
ZqDn3dF7iWYS0XaCBJAxc1rpDvOf4jU1OatlX4X8zdx4+QCBPEVErs0ZlRIht6Ui
N1Luh8Pjy4n8lUed9g0=
-----END CERTIFICATE-----
